; Function Attrs: inlinehint nounwind uwtable
define internal fastcc range(i32 -2147483648, 2147483647) i32 @Str_ObjCreate(ptr noundef captures(none) %0, i32 noundef range(i32 1, 8) %1, i32 noundef %2, ptr noundef readonly captures(none) %3) unnamed_addr #3 {
  %5 = getelementptr inbounds nuw i8, ptr %0, i64 8
  %6 = load ptr, ptr %5, align 8, !tbaa !33
  %7 = load i32, ptr %0, align 8, !tbaa !30
  %8 = sext i32 %7 to i64
  %9 = getelementptr inbounds %struct.Str_Obj_t_, ptr %6, i64 %8
  %10 = shl i32 %2, 4
  %11 = or disjoint i32 %10, %1
  store i32 %11, ptr %9, align 4
  %12 = getelementptr inbounds nuw i8, ptr %0, i64 16
  %13 = getelementptr i8, ptr %0, i64 20
  %.val = load i32, ptr %13, align 4, !tbaa !45
  %14 = getelementptr inbounds nuw i8, ptr %9, i64 4
  store i32 %.val, ptr %14, align 4, !tbaa !37
  %15 = getelementptr inbounds nuw i8, ptr %9, i64 12
  store i32 -1, ptr %15, align 4, !tbaa !34
  %16 = getelementptr inbounds nuw i8, ptr %9, i64 8
  store i32 -1, ptr %16, align 4, !tbaa !88
  %17 = icmp sgt i32 %2, 0
  br i1 %17, label %.lr.ph, label %._crit_edge

.lr.ph:                                           ; preds = %4
  %.phi.trans.insert.i = getelementptr inbounds nuw i8, ptr %0, i64 24
  %wide.trip.count = zext nneg i32 %2 to i64
  br label %18

18:                                               ; preds = %.lr.ph, %Vec_IntPush.exit
  %indvars.iv = phi i64 [ 0, %.lr.ph ], [ %indvars.iv.next, %Vec_IntPush.exit ]
  %19 = getelementptr inbounds nuw i32, ptr %3, i64 %indvars.iv
  %20 = load i32, ptr %19, align 4, !tbaa !38
  %21 = load i32, ptr %13, align 4, !tbaa !45
  %22 = load i32, ptr %12, align 8, !tbaa !47
  %23 = icmp eq i32 %21, %22
  br i1 %23, label %24, label %.Vec_IntGrow.exit10_crit_edge.i

.Vec_IntGrow.exit10_crit_edge.i:                  ; preds = %18
  %.pre.i = load ptr, ptr %.phi.trans.insert.i, align 8, !tbaa !36
  br label %Vec_IntPush.exit

24:                                               ; preds = %18
  %25 = icmp slt i32 %21, 16
  br i1 %25, label %26, label %33

26:                                               ; preds = %24
  %27 = load ptr, ptr %.phi.trans.insert.i, align 8, !tbaa !36
  %.not9.i.i = icmp eq ptr %27, null
  br i1 %.not9.i.i, label %30, label %28

28:                                               ; preds = %26
  %29 = tail call dereferenceable_or_null(64) ptr @realloc(ptr noundef nonnull %27, i64 noundef 64) #29
  br label %Vec_IntGrow.exit.i

30:                                               ; preds = %26
  %31 = tail call noalias dereferenceable_or_null(64) ptr @malloc(i64 noundef 64) #28
  br label %Vec_IntGrow.exit.i

Vec_IntGrow.exit.i:                               ; preds = %30, %28
  %32 = phi ptr [ %29, %28 ], [ %31, %30 ]
  store ptr %32, ptr %.phi.trans.insert.i, align 8, !tbaa !36
  store i32 16, ptr %12, align 8, !tbaa !47
  br label %Vec_IntPush.exit

33:                                               ; preds = %24
  %34 = shl nuw nsw i32 %21, 1
  %35 = load ptr, ptr %.phi.trans.insert.i, align 8, !tbaa !36
  %.not9.i9.i = icmp eq ptr %35, null
  %36 = zext nneg i32 %34 to i64
  %37 = shl nuw nsw i64 %36, 2
  br i1 %.not9.i9.i, label %40, label %38

38:                                               ; preds = %33
  %39 = tail call ptr @realloc(ptr noundef nonnull %35, i64 noundef %37) #29
  br label %42

40:                                               ; preds = %33
  %41 = tail call noalias ptr @malloc(i64 noundef %37) #28
  br label %42

42:                                               ; preds = %40, %38
  %43 = phi ptr [ %39, %38 ], [ %41, %40 ]
  store ptr %43, ptr %.phi.trans.insert.i, align 8, !tbaa !36
  store i32 %34, ptr %12, align 8, !tbaa !47
  br label %Vec_IntPush.exit

Vec_IntPush.exit:                                 ; preds = %.Vec_IntGrow.exit10_crit_edge.i, %Vec_IntGrow.exit.i, %42
  %44 = phi ptr [ %.pre.i, %.Vec_IntGrow.exit10_crit_edge.i ], [ %43, %42 ], [ %32, %Vec_IntGrow.exit.i ]
  %45 = load i32, ptr %13, align 4, !tbaa !45
  %46 = add nsw i32 %45, 1
  store i32 %46, ptr %13, align 4, !tbaa !45
  %47 = sext i32 %45 to i64
  %48 = getelementptr inbounds i32, ptr %44, i64 %47
  store i32 %20, ptr %48, align 4, !tbaa !38
  %indvars.iv.next = add nuw nsw i64 %indvars.iv, 1
  %exitcond.not = icmp eq i64 %indvars.iv.next, %wide.trip.count
  br i1 %exitcond.not, label %._crit_edge, label %18, !llvm.loop !89

._crit_edge:                                      ; preds = %Vec_IntPush.exit, %4
  %49 = getelementptr inbounds nuw i8, ptr %0, i64 32
  %50 = zext nneg i32 %1 to i64
  %51 = getelementptr inbounds nuw [8 x i32], ptr %49, i64 0, i64 %50
  %52 = load i32, ptr %51, align 4, !tbaa !38
  %53 = add nsw i32 %52, 1
  store i32 %53, ptr %51, align 4, !tbaa !38
  %54 = load i32, ptr %0, align 8, !tbaa !30
  %55 = add nsw i32 %54, 1
  store i32 %55, ptr %0, align 8, !tbaa !30
  %56 = shl nsw i32 %54, 1
  ret i32 %56
}